target datalayout = "e-m:e-p270:32:32-p271:32:32-p272:64:64-i64:64-i128:128-f80:128-n8:16:32:64-S128"
target triple = "x86_64-pc-linux-gnu"

%class.rational = type { %class.mpq }
%class.mpq = type { %class.mpz, %class.mpz }
%class.mpz = type { i32, i8, ptr }
%"class.nla::grobner" = type { %"struct.nla::common", %"class.dd::pdd_manager", %"class.dd::solver", ptr, %class.indexed_uint_set, i32, i32, i32, i8, %"class.std::unordered_map.35" }
%"struct.nla::common" = type { ptr, %"class.nla::nex_creator" }
%"class.nla::nex_creator" = type { %class.ptr_vector, %"class.std::unordered_map", %"class.std::unordered_map.2", %class.svector, %"class.nla::nex_creator::mul_factory" }
%class.ptr_vector = type { %class.vector }
%class.vector = type { ptr }
%"class.std::unordered_map" = type { %"class.std::_Hashtable" }
%"class.std::_Hashtable" = type { ptr, i64, %"struct.std::__detail::_Hash_node_base", i64, %"struct.std::__detail::_Prime_rehash_policy", ptr }
%"struct.std::__detail::_Hash_node_base" = type { ptr }
%"struct.std::__detail::_Prime_rehash_policy" = type { float, i64 }
%"class.std::unordered_map.2" = type { %"class.std::_Hashtable.3" }
%"class.std::_Hashtable.3" = type { ptr, i64, %"struct.std::__detail::_Hash_node_base", i64, %"struct.std::__detail::_Prime_rehash_policy", ptr }
%class.svector = type { %class.vector.16 }
%class.vector.16 = type { ptr }
%"class.nla::nex_creator::mul_factory" = type { ptr, %class.rational, %class.vector.17 }
%class.vector.17 = type { ptr }
%"class.dd::pdd_manager" = type { %class.svector.18, %class.vector.20, %class.ptr_hashtable, %class.hashtable, %class.hashtable.23, %class.map, %class.svector, ptr, %class.svector, %class.svector, %class.svector, %class.svector, %class.small_object_allocator, %class.svector, i32, %class.svector, %class.svector, %class.svector.29, i8, i8, i32, i32, %class.svector, %class.svector, %class.rational, %class.rational, i32, %class.rational, %class.svector, i32, %class.svector, %class.svector, %class.rational, %class.rational }
%class.svector.18 = type { %class.vector.19 }
%class.vector.19 = type { ptr }
%class.vector.20 = type { ptr }
%class.ptr_hashtable = type { %class.core_hashtable.base, [4 x i8] }
%class.core_hashtable.base = type <{ ptr, i32, i32, i32 }>
%class.hashtable = type { %class.core_hashtable.base.22, [4 x i8] }
%class.core_hashtable.base.22 = type <{ ptr, i32, i32, i32 }>
%class.hashtable.23 = type { %class.core_hashtable.base.25, [4 x i8] }
%class.core_hashtable.base.25 = type <{ ptr, i32, i32, i32 }>
%class.map = type { %class.table2map }
%class.table2map = type { %class.core_hashtable.27 }
%class.core_hashtable.27 = type <{ ptr, i32, i32, i32, [4 x i8] }>
%class.small_object_allocator = type { [32 x ptr], [32 x ptr], i64 }
%class.svector.29 = type { %class.vector.30 }
%class.vector.30 = type { ptr }
%"class.dd::solver" = type { ptr, ptr, ptr, %"class.dd::solver::stats", %"struct.dd::solver::config", %"class.std::function", %class.ptr_vector.32, %class.ptr_vector.32, %class.ptr_vector.32, %class.vector.34, %class.ptr_vector.32, ptr, i8, i32, %class.svector, %class.svector }
%"class.dd::solver::stats" = type <{ i32, [4 x i8], double, i32, i32, i32, [4 x i8] }>
%"struct.dd::solver::config" = type { i32, i32, i32, i32, i32, i32, i8, i32, i32, i32, i32 }
%"class.std::function" = type { %"class.std::_Function_base", ptr }
%"class.std::_Function_base" = type { %"union.std::_Any_data", ptr }
%"union.std::_Any_data" = type { %"union.std::_Nocopy_types" }
%"union.std::_Nocopy_types" = type { { i64, i64 } }
%class.vector.34 = type { ptr }
%class.ptr_vector.32 = type { %class.vector.33 }
%class.vector.33 = type { ptr }
%class.indexed_uint_set = type { i32, %class.svector, %class.svector }
%"class.std::unordered_map.35" = type { %"class.std::_Hashtable.36" }
%"class.std::_Hashtable.36" = type { ptr, i64, %"struct.std::__detail::_Hash_node_base", i64, %"struct.std::__detail::_Prime_rehash_policy", ptr }
%"class.nla::core" = type { i32, i32, %"class.nla::var_eqs", ptr, ptr, %struct.smt_params_helper, %"class.std::function.64", %class.vector.66, %class.vector.67, %class.vector.68, %class.vector.69, %class.indexed_uint_set, %class.indexed_uint_set, %"struct.nla::tangents", %"struct.nla::basics", %"class.nla::order", %"class.nla::monotone", %"class.nla::powers", %"class.nla::divisions", %"class.nla::intervals", %"class.nla::monomial_bounds", i32, i8, [3 x i8], %"class.nla::horner", %"class.nla::grobner", %"class.nla::emonics", %class.svector, %class.indexed_uint_set, %class.reslimit, i8, %"class.nra::solver", i8, i32, ptr }
%"class.nla::var_eqs" = type { ptr, %class.union_find, %"class.lp::incremental_vector", %class.vector.55, %class.trail_stack, %class.svector.58, %class.svector.60, %class.svector, %class.svector.62, %"struct.nla::var_eqs<nla::emonics>::stats" }
%class.union_find = type { ptr, ptr, %class.svector, %class.svector, %class.svector, %"class.union_find<nla::var_eqs<nla::emonics>>::mk_var_trail" }
%"class.union_find<nla::var_eqs<nla::emonics>>::mk_var_trail" = type { %class.trail, ptr }
%class.trail = type { ptr }
%"class.lp::incremental_vector" = type { %class.vector.53, %class.vector.54 }
%class.vector.53 = type { ptr }
%class.vector.54 = type { ptr }
%class.vector.55 = type { ptr }
%class.trail_stack = type { %class.ptr_vector.56, %class.svector, %class.region }
%class.ptr_vector.56 = type { %class.vector.57 }
%class.vector.57 = type { ptr }
%class.region = type { ptr, ptr, ptr, ptr, ptr }
%class.svector.58 = type { %class.vector.59 }
%class.vector.59 = type { ptr }
%class.svector.60 = type { %class.vector.61 }
%class.vector.61 = type { ptr }
%class.svector.62 = type { %class.vector.63 }
%class.vector.63 = type { ptr }
%"struct.nla::var_eqs<nla::emonics>::stats" = type { i32, i32 }
%struct.smt_params_helper = type { ptr, %class.params_ref }
%class.params_ref = type { ptr }
%"class.std::function.64" = type { %"class.std::_Function_base", ptr }
%class.vector.66 = type { ptr }
%class.vector.67 = type { ptr }
%class.vector.68 = type { ptr }
%class.vector.69 = type { ptr }
%"struct.nla::tangents" = type { %"struct.nla::common" }
%"struct.nla::basics" = type { %"struct.nla::common" }
%"class.nla::order" = type { %"struct.nla::common" }
%"class.nla::monotone" = type { %"struct.nla::common" }
%"class.nla::powers" = type { ptr }
%"class.nla::divisions" = type { ptr, %class.vector.70, %class.vector.70, %class.vector.70 }
%class.vector.70 = type { ptr }
%"class.nla::intervals" = type { %class.dep_intervals, ptr }
%class.dep_intervals = type { ptr, %class.mpq_manager, %"class.dep_intervals::im_config", %class.interval_manager }
%class.mpq_manager = type { %class.mpz_manager, %class.mpz, %class.mpz, %class.mpz, %class.mpz, %class.mpq, %class.mpq }
%class.mpz_manager = type { %class.small_object_allocator, %"class.std::recursive_mutex", [4 x i8], i32, %class.mpz, %class.mpz }
%"class.std::recursive_mutex" = type { %"class.std::__recursive_mutex_base" }
%"class.std::__recursive_mutex_base" = type { %union.pthread_mutex_t }
%union.pthread_mutex_t = type { %struct.__pthread_mutex_s }
%struct.__pthread_mutex_s = type { i32, i32, i32, i32, i32, i16, i16, %struct.__pthread_internal_list }
%struct.__pthread_internal_list = type { ptr, ptr }
%"class.dep_intervals::im_config" = type { ptr, ptr }
%class.interval_manager = type { ptr, %"class.dep_intervals::im_config", %class.mpq, %class.mpq, %class.mpq, %class.mpq, %class.mpq, %class.mpq, %class.mpq, %class.mpq, %class.mpq, i32, %"struct.dep_intervals::im_config::interval", %"struct.dep_intervals::im_config::interval", %"struct.dep_intervals::im_config::interval", %"struct.dep_intervals::im_config::interval" }
%"struct.dep_intervals::im_config::interval" = type { %class.mpq, %class.mpq, i8, ptr, ptr }
%"class.nla::monomial_bounds" = type { %"struct.nla::common", ptr, i32, %class.svector }
%"class.nla::horner" = type <{ %"struct.nla::common", %"class.nla::nex_creator::sum_factory", i32, [4 x i8] }>
%"class.nla::nex_creator::sum_factory" = type { ptr, %class.ptr_vector }
%"class.nla::emonics" = type { %class.trail_stack, %class.union_find.71, %class.svector, ptr, %class.vector.72, %class.svector, i32, %class.svector.73, %"struct.nla::emonics::hash_canonical", %"struct.nla::emonics::eq_canonical", %class.map.75 }
%class.union_find.71 = type { ptr, ptr, %class.svector, %class.svector, %class.svector, %"class.union_find<nla::emonics>::mk_var_trail" }
%"class.union_find<nla::emonics>::mk_var_trail" = type { %class.trail, ptr }
%class.vector.72 = type { ptr }
%class.svector.73 = type { %class.vector.74 }
%class.vector.74 = type { ptr }
%"struct.nla::emonics::hash_canonical" = type { ptr }
%"struct.nla::emonics::eq_canonical" = type { ptr }
%class.map.75 = type { %class.table2map.76 }
%class.table2map.76 = type { %class.core_hashtable.77 }
%class.core_hashtable.77 = type <{ %"struct.table2map<default_map_entry<unsigned int, svector<unsigned int>>, nla::emonics::hash_canonical, nla::emonics::eq_canonical>::entry_hash_proc", %"struct.table2map<default_map_entry<unsigned int, svector<unsigned int>>, nla::emonics::hash_canonical, nla::emonics::eq_canonical>::entry_eq_proc", ptr, i32, i32, i32, [4 x i8] }>
%"struct.table2map<default_map_entry<unsigned int, svector<unsigned int>>, nla::emonics::hash_canonical, nla::emonics::eq_canonical>::entry_hash_proc" = type { %"struct.nla::emonics::hash_canonical" }
%"struct.table2map<default_map_entry<unsigned int, svector<unsigned int>>, nla::emonics::hash_canonical, nla::emonics::eq_canonical>::entry_eq_proc" = type { %"struct.nla::emonics::eq_canonical" }
%class.reslimit = type { %"struct.std::atomic", i8, i64, i64, %class.svector.79, %class.ptr_vector.81 }
%"struct.std::atomic" = type { %"struct.std::__atomic_base" }
%"struct.std::__atomic_base" = type { i32 }
%class.svector.79 = type { %class.vector.80 }
%class.vector.80 = type { ptr }
%class.ptr_vector.81 = type { %class.vector.82 }
%class.vector.82 = type { ptr }
%"class.nra::solver" = type { ptr }
%class.anon.215 = type { ptr }
%class._scoped_interval = type { ptr, %"struct.dep_intervals::im_config::interval" }

; Function Attrs: mustprogress nounwind uwtable
define linkonce_odr hidden noundef nonnull align 8 dereferenceable(88) ptr @_ZN16_scoped_intervalI13dep_intervalsEcvRNS0_9im_config8intervalEEv(ptr noundef nonnull align 8 dereferenceable(96) %0) #4 comdat align 2 {
  %2 = alloca ptr, align 8
  store ptr %0, ptr %2, align 8, !tbaa !359
  %3 = load ptr, ptr %2, align 8
  %4 = getelementptr inbounds nuw %class._scoped_interval, ptr %3, i32 0, i32 1
  ret ptr %4
}

; Function Attrs: mustprogress nounwind uwtable
define linkonce_odr hidden noundef nonnull align 8 dereferenceable(4736) ptr @_ZN3nla6common1cEv(ptr noundef nonnull align 8 dereferenceable(184) %0) #4 comdat align 2 {
  %2 = alloca ptr, align 8
  store ptr %0, ptr %2, align 8, !tbaa !197
  %3 = load ptr, ptr %2, align 8
  %4 = getelementptr inbounds nuw %"struct.nla::common", ptr %3, i32 0, i32 0
  %5 = load ptr, ptr %4, align 8, !tbaa !20
  ret ptr %5
}

; Function Attrs: inlinehint mustprogress uwtable
define internal void @"_ZZN3nla7grobner14is_conflictingERKN2dd6solver8equationEENK3$_0clEjbR16_scoped_intervalI13dep_intervalsE"(ptr noundef nonnull align 8 dereferenceable(8) %0, i32 noundef %1, i1 noundef zeroext %2, ptr noundef nonnull align 8 dereferenceable(96) %3) #7 align 2 {
  %5 = alloca ptr, align 8
  %6 = alloca i32, align 4
  %7 = alloca i8, align 1
  %8 = alloca ptr, align 8
  store ptr %0, ptr %5, align 8, !tbaa !323
  store i32 %1, ptr %6, align 4, !tbaa !8
  %9 = zext i1 %2 to i8
  store i8 %9, ptr %7, align 1, !tbaa !10
  store ptr %3, ptr %8, align 8, !tbaa !359
  %10 = load ptr, ptr %5, align 8
  %11 = getelementptr inbounds nuw %class.anon.215, ptr %10, i32 0, i32 0
  %12 = load ptr, ptr %11, align 8, !tbaa !253
  %13 = load i8, ptr %7, align 1, !tbaa !10, !range !12, !noundef !13
  %14 = trunc i8 %13 to i1
  br i1 %14, label %15, label %21

15:                                               ; preds = %4
  %16 = call noundef nonnull align 8 dereferenceable(4736) ptr @_ZN3nla6common1cEv(ptr noundef nonnull align 8 dereferenceable(184) %12)
  %17 = getelementptr inbounds nuw %"class.nla::core", ptr %16, i32 0, i32 19
  %18 = load i32, ptr %6, align 4, !tbaa !8
  %19 = load ptr, ptr %8, align 8, !tbaa !359
  %20 = call noundef nonnull align 8 dereferenceable(88) ptr @_ZN16_scoped_intervalI13dep_intervalsEcvRNS0_9im_config8intervalEEv(ptr noundef nonnull align 8 dereferenceable(96) %19)
  call void @_ZN3nla9intervals16set_var_intervalILN13dep_intervals11with_deps_tE0EEEvjRNS2_9im_config8intervalE(ptr noundef nonnull align 8 dereferenceable(1432) %17, i32 noundef %18, ptr noundef nonnull align 8 dereferenceable(88) %20)
  br label %27

21:                                               ; preds = %4
  %22 = call noundef nonnull align 8 dereferenceable(4736) ptr @_ZN3nla6common1cEv(ptr noundef nonnull align 8 dereferenceable(184) %12)
  %23 = getelementptr inbounds nuw %"class.nla::core", ptr %22, i32 0, i32 19
  %24 = load i32, ptr %6, align 4, !tbaa !8
  %25 = load ptr, ptr %8, align 8, !tbaa !359
  %26 = call noundef nonnull align 8 dereferenceable(88) ptr @_ZN16_scoped_intervalI13dep_intervalsEcvRNS0_9im_config8intervalEEv(ptr noundef nonnull align 8 dereferenceable(96) %25)
  call void @_ZN3nla9intervals16set_var_intervalILN13dep_intervals11with_deps_tE1EEEvjRNS2_9im_config8intervalE(ptr noundef nonnull align 8 dereferenceable(1432) %23, i32 noundef %24, ptr noundef nonnull align 8 dereferenceable(88) %26)
  br label %27

27:                                               ; preds = %21, %15
  ret void
}

; Function Attrs: mustprogress nounwind uwtable
define linkonce_odr hidden noundef ptr @_ZNKSt9_Any_data9_M_accessEv(ptr noundef nonnull align 8 dereferenceable(16) %0) #4 comdat align 2 {
  %2 = alloca ptr, align 8
  store ptr %0, ptr %2, align 8, !tbaa !982
  %3 = load ptr, ptr %2, align 8
  %4 = getelementptr inbounds [16 x i8], ptr %3, i64 0, i64 0
  ret ptr %4
}

; Function Attrs: mustprogress uwtable
define internal void @"_ZSt13__invoke_implIvRZN3nla7grobner14is_conflictingERKN2dd6solver8equationEE3$_0JjbR16_scoped_intervalI13dep_intervalsEEET_St14__invoke_otherOT0_DpOT1_"(ptr noundef nonnull align 8 dereferenceable(8) %0, ptr noundef nonnull align 4 dereferenceable(4) %1, ptr noundef nonnull align 1 dereferenceable(1) %2, ptr noundef nonnull align 8 dereferenceable(96) %3) #6 {
  %5 = alloca ptr, align 8
  %6 = alloca ptr, align 8
  %7 = alloca ptr, align 8
  %8 = alloca ptr, align 8
  store ptr %0, ptr %5, align 8, !tbaa !323
  store ptr %1, ptr %6, align 8, !tbaa !219
  store ptr %2, ptr %7, align 8, !tbaa !245
  store ptr %3, ptr %8, align 8, !tbaa !359
  %9 = load ptr, ptr %5, align 8, !tbaa !323
  %10 = load ptr, ptr %6, align 8, !tbaa !219
  %11 = load i32, ptr %10, align 4, !tbaa !8
  %12 = load ptr, ptr %7, align 8, !tbaa !245
  %13 = load i8, ptr %12, align 1, !tbaa !10, !range !12, !noundef !13
  %14 = trunc i8 %13 to i1
  %15 = load ptr, ptr %8, align 8, !tbaa !359
  call void @"_ZZN3nla7grobner14is_conflictingERKN2dd6solver8equationEENK3$_0clEjbR16_scoped_intervalI13dep_intervalsE"(ptr noundef nonnull align 8 dereferenceable(8) %9, i32 noundef %11, i1 noundef zeroext %14, ptr noundef nonnull align 8 dereferenceable(96) %15)
  ret void
}

; Function Attrs: mustprogress nounwind uwtable
define internal noundef nonnull align 8 dereferenceable(8) ptr @"_ZNKSt9_Any_data9_M_accessIZN3nla7grobner14is_conflictingERKN2dd6solver8equationEE3$_0EERKT_v"(ptr noundef nonnull align 8 dereferenceable(16) %0) #4 align 2 {
  %2 = alloca ptr, align 8
  store ptr %0, ptr %2, align 8, !tbaa !982
  %3 = load ptr, ptr %2, align 8
  %4 = call noundef ptr @_ZNKSt9_Any_data9_M_accessEv(ptr noundef nonnull align 8 dereferenceable(16) %3) #3
  ret ptr %4
}

; Function Attrs: mustprogress uwtable
define internal void @"_ZSt10__invoke_rIvRZN3nla7grobner14is_conflictingERKN2dd6solver8equationEE3$_0JjbR16_scoped_intervalI13dep_intervalsEEENSt9enable_ifIX16is_invocable_r_vIT_T0_DpT1_EESE_E4typeEOSF_DpOSG_"(ptr noundef nonnull align 8 dereferenceable(8) %0, ptr noundef nonnull align 4 dereferenceable(4) %1, ptr noundef nonnull align 1 dereferenceable(1) %2, ptr noundef nonnull align 8 dereferenceable(96) %3) #6 {
  %5 = alloca ptr, align 8
  %6 = alloca ptr, align 8
  %7 = alloca ptr, align 8
  %8 = alloca ptr, align 8
  store ptr %0, ptr %5, align 8, !tbaa !323
  store ptr %1, ptr %6, align 8, !tbaa !219
  store ptr %2, ptr %7, align 8, !tbaa !245
  store ptr %3, ptr %8, align 8, !tbaa !359
  %9 = load ptr, ptr %5, align 8, !tbaa !323
  %10 = load ptr, ptr %6, align 8, !tbaa !219
  %11 = load ptr, ptr %7, align 8, !tbaa !245
  %12 = load ptr, ptr %8, align 8, !tbaa !359
  call void @"_ZSt13__invoke_implIvRZN3nla7grobner14is_conflictingERKN2dd6solver8equationEE3$_0JjbR16_scoped_intervalI13dep_intervalsEEET_St14__invoke_otherOT0_DpOT1_"(ptr noundef nonnull align 8 dereferenceable(8) %9, ptr noundef nonnull align 4 dereferenceable(4) %10, ptr noundef nonnull align 1 dereferenceable(1) %11, ptr noundef nonnull align 8 dereferenceable(96) %12)
  ret void
}

; Function Attrs: mustprogress nounwind uwtable
define internal noundef ptr @"_ZNSt14_Function_base13_Base_managerIZN3nla7grobner14is_conflictingERKN2dd6solver8equationEE3$_0E14_M_get_pointerERKSt9_Any_data"(ptr noundef nonnull align 8 dereferenceable(16) %0) #4 align 2 {
  %2 = alloca ptr, align 8
  %3 = alloca ptr, align 8
  store ptr %0, ptr %2, align 8, !tbaa !982
  call void @llvm.lifetime.start.p0(i64 8, ptr %3) #3
  %4 = load ptr, ptr %2, align 8, !tbaa !982
  %5 = call noundef nonnull align 8 dereferenceable(8) ptr @"_ZNKSt9_Any_data9_M_accessIZN3nla7grobner14is_conflictingERKN2dd6solver8equationEE3$_0EERKT_v"(ptr noundef nonnull align 8 dereferenceable(16) %4) #3
  store ptr %5, ptr %3, align 8, !tbaa !323
  %6 = load ptr, ptr %3, align 8, !tbaa !323
  call void @llvm.lifetime.end.p0(i64 8, ptr %3) #3
  ret ptr %6
}

; Function Attrs: mustprogress uwtable
define internal void @"_ZNSt17_Function_handlerIFvjbR16_scoped_intervalI13dep_intervalsEEZN3nla7grobner14is_conflictingERKN2dd6solver8equationEE3$_0E9_M_invokeERKSt9_Any_dataOjObS3_"(ptr noundef nonnull align 8 dereferenceable(16) %0, ptr noundef nonnull align 4 dereferenceable(4) %1, ptr noundef nonnull align 1 dereferenceable(1) %2, ptr noundef nonnull align 8 dereferenceable(96) %3) #6 align 2 {
  %5 = alloca ptr, align 8
  %6 = alloca ptr, align 8
  %7 = alloca ptr, align 8
  %8 = alloca ptr, align 8
  store ptr %0, ptr %5, align 8, !tbaa !982
  store ptr %1, ptr %6, align 8, !tbaa !219
  store ptr %2, ptr %7, align 8, !tbaa !245
  store ptr %3, ptr %8, align 8, !tbaa !359
  %9 = load ptr, ptr %5, align 8, !tbaa !982
  %10 = call noundef ptr @"_ZNSt14_Function_base13_Base_managerIZN3nla7grobner14is_conflictingERKN2dd6solver8equationEE3$_0E14_M_get_pointerERKSt9_Any_data"(ptr noundef nonnull align 8 dereferenceable(16) %9) #3
  %11 = load ptr, ptr %6, align 8, !tbaa !219
  %12 = load ptr, ptr %7, align 8, !tbaa !245
  %13 = load ptr, ptr %8, align 8, !tbaa !359
  call void @"_ZSt10__invoke_rIvRZN3nla7grobner14is_conflictingERKN2dd6solver8equationEE3$_0JjbR16_scoped_intervalI13dep_intervalsEEENSt9enable_ifIX16is_invocable_r_vIT_T0_DpT1_EESE_E4typeEOSF_DpOSG_"(ptr noundef nonnull align 8 dereferenceable(8) %10, ptr noundef nonnull align 4 dereferenceable(4) %11, ptr noundef nonnull align 1 dereferenceable(1) %12, ptr noundef nonnull align 8 dereferenceable(96) %13)
  ret void
}