; Function Attrs: mustprogress uwtable
define internal void @"_ZNSt17_Function_handlerIFvjbR16_scoped_intervalI13dep_intervalsEEZN3nla7grobner14is_conflictingERKN2dd6solver8equationEE3$_0E9_M_invokeERKSt9_Any_dataOjObS3_"(ptr noundef nonnull readonly align 8 captures(none) dereferenceable(16) %0, ptr noundef nonnull readonly align 4 captures(none) dereferenceable(4) %1, ptr noundef nonnull readonly align 1 captures(none) dereferenceable(1) %2, ptr noundef nonnull align 8 dereferenceable(96) %3) #4 align 2 {
  %.val = load ptr, ptr %0, align 8, !tbaa !753
  %.val4 = load i32, ptr %1, align 4, !tbaa !184
  %.val5 = load i8, ptr %2, align 1, !tbaa !215, !range !276, !noundef !277
  %.val.val = load ptr, ptr %.val, align 8, !tbaa !8
  %5 = trunc nuw i8 %.val5 to i1
  %6 = getelementptr inbounds nuw i8, ptr %.val.val, i64 1112
  %7 = getelementptr inbounds nuw i8, ptr %3, i64 8
  br i1 %5, label %8, label %9

8:                                                ; preds = %4
  tail call void @_ZN3nla9intervals16set_var_intervalILN13dep_intervals11with_deps_tE0EEEvjRNS2_9im_config8intervalE(ptr noundef nonnull align 8 dereferenceable(1432) %6, i32 noundef %.val4, ptr noundef nonnull align 8 dereferenceable(88) %7)
  br label %"_ZSt10__invoke_rIvRZN3nla7grobner14is_conflictingERKN2dd6solver8equationEE3$_0JjbR16_scoped_intervalI13dep_intervalsEEENSt9enable_ifIX16is_invocable_r_vIT_T0_DpT1_EESE_E4typeEOSF_DpOSG_.exit"

9:                                                ; preds = %4
  tail call void @_ZN3nla9intervals16set_var_intervalILN13dep_intervals11with_deps_tE1EEEvjRNS2_9im_config8intervalE(ptr noundef nonnull align 8 dereferenceable(1432) %6, i32 noundef %.val4, ptr noundef nonnull align 8 dereferenceable(88) %7)
  br label %"_ZSt10__invoke_rIvRZN3nla7grobner14is_conflictingERKN2dd6solver8equationEE3$_0JjbR16_scoped_intervalI13dep_intervalsEEENSt9enable_ifIX16is_invocable_r_vIT_T0_DpT1_EESE_E4typeEOSF_DpOSG_.exit"

"_ZSt10__invoke_rIvRZN3nla7grobner14is_conflictingERKN2dd6solver8equationEE3$_0JjbR16_scoped_intervalI13dep_intervalsEEENSt9enable_ifIX16is_invocable_r_vIT_T0_DpT1_EESE_E4typeEOSF_DpOSG_.exit": ; preds = %8, %9
  ret void
}